; ModuleID = '40/1624.c'
source_filename = "40/1624.c"
target datalayout = "e-m:e-p270:32:32-p271:32:32-p272:64:64-i64:64-f80:128-n8:16:32:64-S128"
target triple = "x86_64-pc-linux-gnu"

@.str = private unnamed_addr constant [16 x i8] c"%lf%lf%lf%lf%lf\00", align 1
@.str.1 = private unnamed_addr constant [14 x i8] c"Invalid input\00", align 1
@.str.2 = private unnamed_addr constant [5 x i8] c"%.4f\00", align 1

; Function Attrs: noinline nounwind uwtable
define dso_local void @main() #0 {
  %1 = alloca double, align 8
  %2 = alloca double, align 8
  %3 = alloca double, align 8
  %4 = alloca double, align 8
  %5 = alloca double, align 8
  %6 = alloca double, align 8
  %7 = call i32 (i8*, ...) @__isoc99_scanf(i8* getelementptr inbounds ([16 x i8], [16 x i8]* @.str, i64 0, i64 0), double* %1, double* %2, double* %3, double* %4, double* %6)
  %8 = load double, double* %1, align 8
  %9 = load double, double* %2, align 8
  %10 = load double, double* %3, align 8
  %11 = load double, double* %4, align 8
  %12 = load double, double* %6, align 8
  %13 = call double @S(double %8, double %9, double %10, double %11, double %12)
  store double %13, double* %5, align 8
  %14 = load double, double* %5, align 8
  %15 = fcmp oeq double %14, 0.000000e+00
  br i1 %15, label %16, label %18

16:                                               ; preds = %0
  %17 = call i32 (i8*, ...) @printf(i8* getelementptr inbounds ([14 x i8], [14 x i8]* @.str.1, i64 0, i64 0))
  br label %21

18:                                               ; preds = %0
  %19 = load double, double* %5, align 8
  %20 = call i32 (i8*, ...) @printf(i8* getelementptr inbounds ([5 x i8], [5 x i8]* @.str.2, i64 0, i64 0), double %19)
  br label %21

21:                                               ; preds = %18, %16
  ret void
}

declare dso_local i32 @__isoc99_scanf(i8*, ...) #1

; Function Attrs: noinline nounwind uwtable
define dso_local double @S(double %0, double %1, double %2, double %3, double %4) #0 {
  %6 = alloca double, align 8
  %7 = alloca double, align 8
  %8 = alloca double, align 8
  %9 = alloca double, align 8
  %10 = alloca double, align 8
  %11 = alloca double, align 8
  %12 = alloca double, align 8
  %13 = alloca double, align 8
  %14 = alloca double, align 8
  %15 = alloca double, align 8
  store double %0, double* %7, align 8
  store double %1, double* %8, align 8
  store double %2, double* %9, align 8
  store double %3, double* %10, align 8
  store double %4, double* %11, align 8
  %16 = load double, double* %7, align 8
  %17 = load double, double* %8, align 8
  %18 = fadd double %16, %17
  %19 = load double, double* %9, align 8
  %20 = fadd double %18, %19
  %21 = load double, double* %10, align 8
  %22 = fadd double %20, %21
  %23 = fdiv double %22, 2.000000e+00
  store double %23, double* %12, align 8
  %24 = load double, double* %11, align 8
  %25 = fdiv double %24, 3.600000e+02
  %26 = fmul double %25, 0x400921FB4D12D84A
  %27 = call double @cos(double %26) #3
  store double %27, double* %14, align 8
  %28 = load double, double* %14, align 8
  %29 = load double, double* %14, align 8
  %30 = fmul double %28, %29
  store double %30, double* %15, align 8
  %31 = load double, double* %12, align 8
  %32 = load double, double* %7, align 8
  %33 = fsub double %31, %32
  %34 = load double, double* %12, align 8
  %35 = load double, double* %8, align 8
  %36 = fsub double %34, %35
  %37 = fmul double %33, %36
  %38 = load double, double* %12, align 8
  %39 = load double, double* %9, align 8
  %40 = fsub double %38, %39
  %41 = fmul double %37, %40
  %42 = load double, double* %12, align 8
  %43 = load double, double* %10, align 8
  %44 = fsub double %42, %43
  %45 = fmul double %41, %44
  %46 = load double, double* %7, align 8
  %47 = load double, double* %8, align 8
  %48 = fmul double %46, %47
  %49 = load double, double* %9, align 8
  %50 = fmul double %48, %49
  %51 = load double, double* %10, align 8
  %52 = fmul double %50, %51
  %53 = load double, double* %15, align 8
  %54 = fmul double %52, %53
  %55 = fsub double %45, %54
  %56 = fcmp olt double %55, 0.000000e+00
  br i1 %56, label %57, label %58

57:                                               ; preds = %5
  store double 0.000000e+00, double* %6, align 8
  br label %86

58:                                               ; preds = %5
  %59 = load double, double* %12, align 8
  %60 = load double, double* %7, align 8
  %61 = fsub double %59, %60
  %62 = load double, double* %12, align 8
  %63 = load double, double* %8, align 8
  %64 = fsub double %62, %63
  %65 = fmul double %61, %64
  %66 = load double, double* %12, align 8
  %67 = load double, double* %9, align 8
  %68 = fsub double %66, %67
  %69 = fmul double %65, %68
  %70 = load double, double* %12, align 8
  %71 = load double, double* %10, align 8
  %72 = fsub double %70, %71
  %73 = fmul double %69, %72
  %74 = load double, double* %7, align 8
  %75 = load double, double* %8, align 8
  %76 = fmul double %74, %75
  %77 = load double, double* %9, align 8
  %78 = fmul double %76, %77
  %79 = load double, double* %10, align 8
  %80 = fmul double %78, %79
  %81 = load double, double* %15, align 8
  %82 = fmul double %80, %81
  %83 = fsub double %73, %82
  %84 = call double @sqrt(double %83) #3
  store double %84, double* %13, align 8
  %85 = load double, double* %13, align 8
  store double %85, double* %6, align 8
  br label %86

86:                                               ; preds = %58, %57
  %87 = load double, double* %6, align 8
  ret double %87
}

declare dso_local i32 @printf(i8*, ...) #1

; Function Attrs: nounwind
declare dso_local double @cos(double) #2

; Function Attrs: nounwind
declare dso_local double @sqrt(double) #2


!llvm.module.flags = !{!0}
!llvm.ident = !{!1}

!0 = !{i32 1, !"wchar_size", i32 4}
!1 = !{!"clang version 10.0.0-4ubuntu1 "}
